target datalayout = "e-m:e-p270:32:32-p271:32:32-p272:64:64-i64:64-i128:128-f80:128-n8:16:32:64-S128"
target triple = "x86_64-pc-linux-gnu"

%"class.llvm::SmallVectorBase.4" = type { ptr, i32, i32 }
%"class.llvm::SmallVector.124" = type { %"class.llvm::SmallVectorImpl.125", %"struct.llvm::SmallVectorStorage.128" }
%"class.llvm::SmallVectorImpl.125" = type { %"class.llvm::SmallVectorTemplateBase.126" }
%"class.llvm::SmallVectorTemplateBase.126" = type { %"class.llvm::SmallVectorTemplateCommon.127" }
%"class.llvm::SmallVectorTemplateCommon.127" = type { %"class.llvm::SmallVectorBase.4" }
%"struct.llvm::SmallVectorStorage.128" = type { [24 x i8] }
%"class.llvm::ArrayRef.1155" = type { ptr, i64 }
%"struct.(anonymous namespace)::ToolSelector::JobActionInfo" = type { ptr, %"class.llvm::SmallVector.124" }

; Function Attrs: mustprogress nounwind uwtable
define linkonce_odr hidden noundef ptr @_ZNK4llvm25SmallVectorTemplateCommonIPN5clang6driver6ActionEvE3endEv(ptr noundef nonnull align 8 dereferenceable(16) %0) #0 comdat align 2 {
  %2 = alloca ptr, align 8
  store ptr %0, ptr %2, align 8
  %3 = load ptr, ptr %2, align 8
  %4 = call noundef ptr @_ZNK4llvm25SmallVectorTemplateCommonIPN5clang6driver6ActionEvE5beginEv(ptr noundef nonnull align 8 dereferenceable(16) %3)
  %5 = call noundef i64 @_ZNK4llvm15SmallVectorBaseIjE4sizeEv(ptr noundef nonnull align 8 dereferenceable(16) %3)
  %6 = getelementptr inbounds ptr, ptr %4, i64 %5
  ret ptr %6
}

; Function Attrs: mustprogress nounwind uwtable
define linkonce_odr hidden noundef ptr @_ZNK4llvm25SmallVectorTemplateCommonIPN5clang6driver6ActionEvE5beginEv(ptr noundef nonnull align 8 dereferenceable(16) %0) #0 comdat align 2 {
  %2 = alloca ptr, align 8
  store ptr %0, ptr %2, align 8
  %3 = load ptr, ptr %2, align 8
  %4 = getelementptr inbounds nuw %"class.llvm::SmallVectorBase.4", ptr %3, i32 0, i32 0
  %5 = load ptr, ptr %4, align 8
  ret ptr %5
}

; Function Attrs: mustprogress nounwind uwtable
define internal noundef nonnull align 8 dereferenceable(48) ptr @_ZNK4llvm8ArrayRefIN12_GLOBAL__N_112ToolSelector13JobActionInfoEEixEm(ptr noundef nonnull align 8 dereferenceable(16) %0, i64 noundef %1) #0 align 2 {
  %3 = alloca ptr, align 8
  %4 = alloca i64, align 8
  store ptr %0, ptr %3, align 8
  store i64 %1, ptr %4, align 8
  %5 = load ptr, ptr %3, align 8
  %6 = getelementptr inbounds nuw %"class.llvm::ArrayRef.1155", ptr %5, i32 0, i32 0
  %7 = load ptr, ptr %6, align 8
  %8 = load i64, ptr %4, align 8
  %9 = getelementptr inbounds %"struct.(anonymous namespace)::ToolSelector::JobActionInfo", ptr %7, i64 %8
  ret ptr %9
}

; Function Attrs: mustprogress nounwind uwtable
define internal void @_ZN12_GLOBAL__N_112ToolSelector28AppendCollapsedOffloadActionERN4llvm11SmallVectorIPN5clang6driver6ActionELj3EEERNS1_8ArrayRefINS0_13JobActionInfoEEEj(ptr noundef nonnull align 8 dereferenceable(40) %0, ptr noundef nonnull align 8 dereferenceable(16) %1, i32 noundef %2) #0 align 2 {
  %4 = alloca ptr, align 8
  %5 = alloca ptr, align 8
  %6 = alloca i32, align 4
  %7 = alloca i32, align 4
  store ptr %0, ptr %4, align 8
  store ptr %1, ptr %5, align 8
  store i32 %2, ptr %6, align 4
  store i32 0, ptr %7, align 4
  br label %8

8:                                                ; preds = %26, %3
  %9 = load i32, ptr %7, align 4
  %10 = load i32, ptr %6, align 4
  %11 = icmp ult i32 %9, %10
  br i1 %11, label %12, label %29

12:                                               ; preds = %8
  %13 = load ptr, ptr %4, align 8
  %14 = load ptr, ptr %5, align 8
  %15 = load i32, ptr %7, align 4
  %16 = zext i32 %15 to i64
  %17 = call noundef nonnull align 8 dereferenceable(48) ptr @_ZNK4llvm8ArrayRefIN12_GLOBAL__N_112ToolSelector13JobActionInfoEEixEm(ptr noundef nonnull align 8 dereferenceable(16) %14, i64 noundef %16)
  %18 = getelementptr inbounds nuw %"struct.(anonymous namespace)::ToolSelector::JobActionInfo", ptr %17, i32 0, i32 1
  %19 = call noundef ptr @_ZNK4llvm25SmallVectorTemplateCommonIPN5clang6driver6ActionEvE5beginEv(ptr noundef nonnull align 8 dereferenceable(16) %18)
  %20 = load ptr, ptr %5, align 8
  %21 = load i32, ptr %7, align 4
  %22 = zext i32 %21 to i64
  %23 = call noundef nonnull align 8 dereferenceable(48) ptr @_ZNK4llvm8ArrayRefIN12_GLOBAL__N_112ToolSelector13JobActionInfoEEixEm(ptr noundef nonnull align 8 dereferenceable(16) %20, i64 noundef %22)
  %24 = getelementptr inbounds nuw %"struct.(anonymous namespace)::ToolSelector::JobActionInfo", ptr %23, i32 0, i32 1
  %25 = call noundef ptr @_ZNK4llvm25SmallVectorTemplateCommonIPN5clang6driver6ActionEvE3endEv(ptr noundef nonnull align 8 dereferenceable(16) %24)
  call void @_ZN4llvm15SmallVectorImplIPN5clang6driver6ActionEE6appendIPKS4_vEEvT_S9_(ptr noundef nonnull align 8 dereferenceable(16) %13, ptr noundef %19, ptr noundef %25)
  br label %26

26:                                               ; preds = %12
  %27 = load i32, ptr %7, align 4
  %28 = add i32 %27, 1
  store i32 %28, ptr %7, align 4
  br label %8, !llvm.loop !80

29:                                               ; preds = %8
  ret void
}