; Function Attrs: mustprogress nounwind uwtable
define internal fastcc void @_ZN12_GLOBAL__N_112ToolSelector28AppendCollapsedOffloadActionERN4llvm11SmallVectorIPN5clang6driver6ActionELj3EEERNS1_8ArrayRefINS0_13JobActionInfoEEEj(ptr noundef nonnull align 8 dereferenceable(40) %0, ptr nocapture noundef nonnull readonly align 8 dereferenceable(16) %1, i32 noundef %2) unnamed_addr #0 align 2 {
  %.not = icmp eq i32 %2, 0
  br i1 %.not, label %._crit_edge, label %.lr.ph.preheader

.lr.ph.preheader:                                 ; preds = %3
  %wide.trip.count = zext i32 %2 to i64
  br label %.lr.ph

.lr.ph:                                           ; preds = %.lr.ph.preheader, %.lr.ph
  %indvars.iv = phi i64 [ 0, %.lr.ph.preheader ], [ %indvars.iv.next, %.lr.ph ]
  %.val7 = load ptr, ptr %1, align 8
  %4 = getelementptr inbounds %"struct.(anonymous namespace)::ToolSelector::JobActionInfo", ptr %.val7, i64 %indvars.iv, i32 1
  %5 = load ptr, ptr %4, align 8
  %6 = tail call noundef i64 @_ZNK4llvm15SmallVectorBaseIjE4sizeEv(ptr noundef nonnull align 8 dereferenceable(16) %4) #30
  %7 = getelementptr inbounds ptr, ptr %5, i64 %6
  tail call void @_ZN4llvm15SmallVectorImplIPN5clang6driver6ActionEE6appendIPKS4_vEEvT_S9_(ptr noundef nonnull align 8 dereferenceable(16) %0, ptr noundef %5, ptr noundef %7)
  %indvars.iv.next = add nuw nsw i64 %indvars.iv, 1
  %exitcond.not = icmp eq i64 %indvars.iv.next, %wide.trip.count
  br i1 %exitcond.not, label %._crit_edge, label %.lr.ph, !llvm.loop !1468

._crit_edge:                                      ; preds = %.lr.ph, %3
  ret void
}